SF:/home/nbari/projects/rust/dbpulse/src/cli/actions/mod.rs
FN:26,_RNvMNtNtCsdJikqdy9mw1_7dbpulse3cli7actionsNtB2_6Action7execute
FN:26,_RNCNvMNtNtCsdJikqdy9mw1_7dbpulse3cli7actionsNtB4_6Action7execute0B8_
FN:26,_RNCNvMNtNtCsjevN86VL6yf_7dbpulse3cli7actionsNtB4_6Action7execute0B8_
FN:26,_RNvMNtNtCsjevN86VL6yf_7dbpulse3cli7actionsNtB2_6Action7execute
FNDA:0,_RNvMNtNtCsdJikqdy9mw1_7dbpulse3cli7actionsNtB2_6Action7execute
FNDA:0,_RNCNvMNtNtCsdJikqdy9mw1_7dbpulse3cli7actionsNtB4_6Action7execute0B8_
FNDA:0,_RNCNvMNtNtCsjevN86VL6yf_7dbpulse3cli7actionsNtB4_6Action7execute0B8_
FNDA:0,_RNvMNtNtCsjevN86VL6yf_7dbpulse3cli7actionsNtB2_6Action7execute
FNF:2
FNH:0
DA:26,0
DA:27,0
DA:28,0
BRF:0
BRH:0
LF:4
LH:0
end_of_record
SF:/home/nbari/projects/rust/dbpulse/src/cli/actions/run.rs
FN:4,_RNCNvNtNtNtCsdJikqdy9mw1_7dbpulse3cli7actions3run7execute0B9_
FN:4,_RNvNtNtNtCsdJikqdy9mw1_7dbpulse3cli7actions3run7execute
FN:4,_RNCNvNtNtNtCsjevN86VL6yf_7dbpulse3cli7actions3run7execute0B9_
FN:4,_RNvNtNtNtCsjevN86VL6yf_7dbpulse3cli7actions3run7execute
FNDA:0,_RNCNvNtNtNtCsdJikqdy9mw1_7dbpulse3cli7actions3run7execute0B9_
FNDA:0,_RNvNtNtNtCsdJikqdy9mw1_7dbpulse3cli7actions3run7execute
FNDA:0,_RNCNvNtNtNtCsjevN86VL6yf_7dbpulse3cli7actions3run7execute0B9_
FNDA:0,_RNvNtNtNtCsjevN86VL6yf_7dbpulse3cli7actions3run7execute
FNF:2
FNH:0
DA:4,0
DA:5,0
DA:7,0
DA:8,0
DA:9,0
DA:10,0
DA:11,0
DA:12,0
DA:13,0
DA:15,0
BRF:0
BRH:0
LF:11
LH:0
end_of_record
SF:/home/nbari/projects/rust/dbpulse/src/cli/commands/mod.rs
FN:8,_RNvNtNtCsdJikqdy9mw1_7dbpulse3cli8commands3new
FN:157,_RNvNtNtNtCsjevN86VL6yf_7dbpulse3cli8commands5testss_16test_new_no_args
FN:179,_RNvNtNtNtCsjevN86VL6yf_7dbpulse3cli8commands5testss_19test_new_args_mysql
FN:214,_RNvNtNtNtCsjevN86VL6yf_7dbpulse3cli8commands5testss_19test_new_args_range
FN:195,_RNvNtNtNtCsjevN86VL6yf_7dbpulse3cli8commands5testss_22test_new_args_postgres
FN:143,_RNvNtNtNtCsjevN86VL6yf_7dbpulse3cli8commands5testss_8test_new
FN:8,_RNvNtNtCsjevN86VL6yf_7dbpulse3cli8commands3new
FNDA:0,_RNvNtNtCsdJikqdy9mw1_7dbpulse3cli8commands3new
FNDA:1,_RNvNtNtNtCsjevN86VL6yf_7dbpulse3cli8commands5testss_16test_new_no_args
FNDA:1,_RNvNtNtNtCsjevN86VL6yf_7dbpulse3cli8commands5testss_19test_new_args_mysql
FNDA:1,_RNvNtNtNtCsjevN86VL6yf_7dbpulse3cli8commands5testss_19test_new_args_range
FNDA:1,_RNvNtNtNtCsjevN86VL6yf_7dbpulse3cli8commands5testss_22test_new_args_postgres
FNDA:1,_RNvNtNtNtCsjevN86VL6yf_7dbpulse3cli8commands5testss_8test_new
FNDA:12,_RNvNtNtCsjevN86VL6yf_7dbpulse3cli8commands3new
FNF:6
FNH:6
DA:8,12
DA:9,12
DA:10,12
DA:11,12
DA:12,12
DA:13,12
DA:15,12
DA:16,12
DA:17,12
DA:18,12
DA:19,12
DA:20,12
DA:21,12
DA:22,12
DA:23,12
DA:24,12
DA:25,12
DA:26,12
DA:28,12
DA:29,12
DA:30,12
DA:31,12
DA:32,12
DA:33,12
DA:34,12
DA:35,12
DA:37,12
DA:38,12
DA:39,12
DA:40,12
DA:41,12
DA:42,12
DA:54,12
DA:55,12
DA:57,12
DA:58,12
DA:59,12
DA:60,12
DA:61,12
DA:62,12
DA:63,12
DA:64,12
DA:66,12
DA:67,12
DA:68,12
DA:69,12
DA:70,12
DA:71,12
DA:72,12
DA:73,12
DA:75,12
DA:76,12
DA:77,12
DA:78,12
DA:79,12
DA:80,12
DA:94,12
DA:95,12
DA:97,12
DA:98,12
DA:99,12
DA:100,12
DA:101,12
DA:102,12
DA:107,12
DA:108,12
DA:110,12
DA:111,12
DA:112,12
DA:113,12
DA:114,12
DA:115,12
DA:120,12
DA:121,12
DA:123,12
DA:124,12
DA:125,12
DA:126,12
DA:127,12
DA:128,12
DA:133,12
DA:134,12
DA:136,12
DA:143,1
DA:144,1
DA:145,1
DA:146,1
DA:147,1
DA:150,1
DA:151,1
DA:154,1
DA:157,1
DA:159,1
DA:161,1
DA:162,1
DA:163,1
DA:165,1
DA:166,1
DA:167,1
DA:170,1
DA:172,1
DA:173,1
DA:174,1
DA:175,0
DA:176,1
DA:179,1
DA:180,1
DA:181,1
DA:182,1
DA:183,1
DA:185,1
DA:186,1
DA:187,1
DA:188,1
DA:190,1
DA:191,1
DA:192,1
DA:195,1
DA:196,1
DA:197,1
DA:199,1
DA:200,1
DA:202,1
DA:204,1
DA:205,1
DA:206,1
DA:207,1
DA:209,1
DA:210,1
DA:211,1
DA:214,1
DA:215,1
DA:216,1
DA:218,1
DA:219,1
DA:220,1
DA:221,1
DA:223,1
DA:225,1
DA:226,1
DA:227,1
BRF:0
BRH:0
LF:141
LH:140
end_of_record
SF:/home/nbari/projects/rust/dbpulse/src/cli/dispatch/mod.rs
FN:9,_RNvNtNtCsdJikqdy9mw1_7dbpulse3cli8dispatch8dispatch
FN:24,_RNCNCNvNtNtCsdJikqdy9mw1_7dbpulse3cli8dispatch8dispatch00B9_
FN:22,_RNCNvNtNtCsdJikqdy9mw1_7dbpulse3cli8dispatch8dispatch0B7_
FN:37,_RNCNvNtNtCsdJikqdy9mw1_7dbpulse3cli8dispatch8dispatchs_0B7_
FN:24,_RNCNCNvNtNtCsjevN86VL6yf_7dbpulse3cli8dispatch8dispatch00B9_
FN:22,_RNCNvNtNtCsjevN86VL6yf_7dbpulse3cli8dispatch8dispatch0B7_
FN:37,_RNCNvNtNtCsjevN86VL6yf_7dbpulse3cli8dispatch8dispatchs_0B7_
FN:9,_RNvNtNtCsjevN86VL6yf_7dbpulse3cli8dispatch8dispatch
FN:232,_RNvNtNtNtCsjevN86VL6yf_7dbpulse3cli8dispatch5testss_22test_dispatch_with_tls
FN:63,_RNvNtNtNtCsjevN86VL6yf_7dbpulse3cli8dispatch5testss_25test_dispatch_valid_mysql
FN:164,_RNvNtNtNtCsjevN86VL6yf_7dbpulse3cli8dispatch5testss_25test_dispatch_with_listen
FN:127,_RNvNtNtNtCsjevN86VL6yf_7dbpulse3cli8dispatch5testss_27test_dispatch_custom_values
FN:262,_RNvNtNtNtCsjevN86VL6yf_7dbpulse3cli8dispatch5testss_28test_dispatch_invalid_listen
FN:90,_RNvNtNtNtCsjevN86VL6yf_7dbpulse3cli8dispatch5testss_28test_dispatch_valid_postgres
FN:199,_RNvNtNtNtCsjevN86VL6yf_7dbpulse3cli8dispatch5testss_30test_dispatch_with_ipv6_listen
FNDA:0,_RNvNtNtCsdJikqdy9mw1_7dbpulse3cli8dispatch8dispatch
FNDA:0,_RNCNCNvNtNtCsdJikqdy9mw1_7dbpulse3cli8dispatch8dispatch00B9_
FNDA:0,_RNCNvNtNtCsdJikqdy9mw1_7dbpulse3cli8dispatch8dispatch0B7_
FNDA:0,_RNCNvNtNtCsdJikqdy9mw1_7dbpulse3cli8dispatch8dispatchs_0B7_
FNDA:1,_RNCNCNvNtNtCsjevN86VL6yf_7dbpulse3cli8dispatch8dispatch00B9_
FNDA:3,_RNCNvNtNtCsjevN86VL6yf_7dbpulse3cli8dispatch8dispatch0B7_
FNDA:1,_RNCNvNtNtCsjevN86VL6yf_7dbpulse3cli8dispatch8dispatchs_0B7_
FNDA:7,_RNvNtNtCsjevN86VL6yf_7dbpulse3cli8dispatch8dispatch
FNDA:1,_RNvNtNtNtCsjevN86VL6yf_7dbpulse3cli8dispatch5testss_22test_dispatch_with_tls
FNDA:1,_RNvNtNtNtCsjevN86VL6yf_7dbpulse3cli8dispatch5testss_25test_dispatch_valid_mysql
FNDA:1,_RNvNtNtNtCsjevN86VL6yf_7dbpulse3cli8dispatch5testss_25test_dispatch_with_listen
FNDA:1,_RNvNtNtNtCsjevN86VL6yf_7dbpulse3cli8dispatch5testss_27test_dispatch_custom_values
FNDA:1,_RNvNtNtNtCsjevN86VL6yf_7dbpulse3cli8dispatch5testss_28test_dispatch_invalid_listen
FNDA:1,_RNvNtNtNtCsjevN86VL6yf_7dbpulse3cli8dispatch5testss_28test_dispatch_valid_postgres
FNDA:1,_RNvNtNtNtCsjevN86VL6yf_7dbpulse3cli8dispatch5testss_30test_dispatch_with_ipv6_listen
FNF:11
FNH:11
DA:9,7
DA:11,7
DA:12,7
DA:13,7
DA:14,7
DA:17,7
DA:20,7
DA:21,7
DA:22,7
DA:23,3
DA:24,3
DA:25,3
DA:26,7
DA:29,6
DA:32,6
DA:35,6
DA:36,6
DA:37,6
DA:38,6
DA:40,6
DA:41,6
DA:42,6
DA:43,6
DA:44,6
DA:45,6
DA:47,6
DA:48,6
DA:49,6
DA:50,6
DA:51,6
DA:52,6
DA:53,6
DA:54,6
DA:55,7
DA:63,1
DA:64,1
DA:65,1
DA:66,1
DA:67,1
DA:69,1
DA:70,1
DA:72,1
DA:73,1
DA:74,1
DA:75,1
DA:76,1
DA:77,1
DA:79,1
DA:80,1
DA:81,1
DA:82,1
DA:83,1
DA:84,1
DA:87,1
DA:90,1
DA:91,1
DA:92,1
DA:93,1
DA:95,1
DA:96,1
DA:97,1
DA:98,1
DA:99,1
DA:100,1
DA:101,1
DA:102,1
DA:104,1
DA:106,1
DA:107,1
DA:109,1
DA:110,1
DA:111,1
DA:112,1
DA:113,1
DA:114,1
DA:116,1
DA:117,1
DA:118,1
DA:119,1
DA:120,1
DA:121,1
DA:124,1
DA:127,1
DA:128,1
DA:129,1
DA:130,1
DA:132,1
DA:133,1
DA:134,1
DA:135,1
DA:136,1
DA:137,1
DA:138,1
DA:139,1
DA:141,1
DA:143,1
DA:144,1
DA:146,1
DA:147,1
DA:148,1
DA:149,1
DA:150,1
DA:151,1
DA:153,1
DA:154,1
DA:155,1
DA:156,1
DA:157,1
DA:158,1
DA:161,1
DA:164,1
DA:165,1
DA:166,1
DA:167,1
DA:169,1
DA:170,1
DA:171,1
DA:172,1
DA:173,1
DA:174,1
DA:176,1
DA:178,1
DA:179,1
DA:181,1
DA:182,1
DA:183,1
DA:184,1
DA:185,1
DA:186,1
DA:188,1
DA:189,1
DA:190,1
DA:191,1
DA:192,1
DA:193,1
DA:196,1
DA:199,1
DA:200,1
DA:201,1
DA:202,1
DA:204,1
DA:205,1
DA:206,1
DA:207,1
DA:209,1
DA:211,1
DA:212,1
DA:214,1
DA:215,1
DA:216,1
DA:217,1
DA:218,1
DA:219,1
DA:221,1
DA:222,1
DA:223,1
DA:224,1
DA:225,1
DA:226,1
DA:229,1
DA:232,1
DA:233,1
DA:234,1
DA:235,1
DA:237,1
DA:238,1
DA:239,1
DA:240,1
DA:242,1
DA:244,1
DA:245,1
DA:247,1
DA:252,1
DA:254,1
DA:255,1
DA:256,1
DA:259,1
DA:262,1
DA:263,1
DA:264,1
DA:265,1
DA:267,1
DA:268,1
DA:269,1
DA:270,1
DA:272,1
DA:274,1
DA:275,1
DA:276,1
DA:277,1
DA:278,1
DA:279,1
DA:280,1
DA:282,1
BRF:0
BRH:0
LF:197
LH:197
end_of_record
SF:/home/nbari/projects/rust/dbpulse/src/cli/start.rs
FN:17,_RNvNtNtCsdJikqdy9mw1_7dbpulse3cli5start5start
FN:17,_RNCNvNtNtCsdJikqdy9mw1_7dbpulse3cli5start5start0B7_
FN:17,_RNvNtNtCsjevN86VL6yf_7dbpulse3cli5start5start
FN:17,_RNCNvNtNtCsjevN86VL6yf_7dbpulse3cli5start5start0B7_
FNDA:0,_RNvNtNtCsdJikqdy9mw1_7dbpulse3cli5start5start
FNDA:0,_RNCNvNtNtCsdJikqdy9mw1_7dbpulse3cli5start5start0B7_
FNDA:0,_RNvNtNtCsjevN86VL6yf_7dbpulse3cli5start5start
FNDA:0,_RNCNvNtNtCsjevN86VL6yf_7dbpulse3cli5start5start0B7_
FNF:2
FNH:0
DA:17,0
DA:19,0
DA:28,0
DA:31,0
DA:33,0
DA:34,0
BRF:0
BRH:0
LF:7
LH:0
end_of_record
SF:/home/nbari/projects/rust/dbpulse/src/metrics.rs
FN:194,_RNvNtCsdJikqdy9mw1_7dbpulse7metrics14encode_metrics
FN:158,_RNCNvNtCsdJikqdy9mw1_7dbpulse7metrics10TABLE_ROWS0B5_
FN:181,_RNCNvNtCsdJikqdy9mw1_7dbpulse7metrics11DB_READONLY0B5_
FN:133,_RNCNvNtCsdJikqdy9mw1_7dbpulse7metrics12LAST_SUCCESS0B5_
FN:109,_RNCNvNtCsdJikqdy9mw1_7dbpulse7metrics13ROWS_AFFECTED0B5_
FN:200,_RNCNvNtCsdJikqdy9mw1_7dbpulse7metrics14encode_metrics0B5_
FN:121,_RNCNvNtCsdJikqdy9mw1_7dbpulse7metrics16ITERATIONS_TOTAL0B5_
FN:170,_RNCNvNtCsdJikqdy9mw1_7dbpulse7metrics16PANICS_RECOVERED0B5_
FN:146,_RNCNvNtCsdJikqdy9mw1_7dbpulse7metrics16TABLE_SIZE_BYTES0B5_
FN:99,_RNCNvNtCsdJikqdy9mw1_7dbpulse7metrics18CONNECTIONS_ACTIVE0B5_
FN:76,_RNCNvNtCsdJikqdy9mw1_7dbpulse7metrics18OPERATION_DURATION0B5_
FN:88,_RNCNvNtCsdJikqdy9mw1_7dbpulse7metrics19CONNECTION_DURATION0B5_
FN:39,_RNCNvNtCsdJikqdy9mw1_7dbpulse7metrics21TLS_CONNECTION_ERRORS0B5_
FN:27,_RNCNvNtCsdJikqdy9mw1_7dbpulse7metrics22TLS_HANDSHAKE_DURATION0B5_
FN:13,_RNCNvNtCsdJikqdy9mw1_7dbpulse7metrics5PULSE0B5_
FN:18,_RNCNvNtCsdJikqdy9mw1_7dbpulse7metrics7RUNTIME0B5_
FN:51,_RNCNvNtCsdJikqdy9mw1_7dbpulse7metrics8TLS_INFO0B5_
FN:64,_RNCNvNtCsdJikqdy9mw1_7dbpulse7metrics9DB_ERRORS0B5_
FN:158,_RNCNvNtCsjevN86VL6yf_7dbpulse7metrics10TABLE_ROWS0B5_
FN:181,_RNCNvNtCsjevN86VL6yf_7dbpulse7metrics11DB_READONLY0B5_
FN:133,_RNCNvNtCsjevN86VL6yf_7dbpulse7metrics12LAST_SUCCESS0B5_
FN:109,_RNCNvNtCsjevN86VL6yf_7dbpulse7metrics13ROWS_AFFECTED0B5_
FN:200,_RNCNvNtCsjevN86VL6yf_7dbpulse7metrics14encode_metrics0B5_
FN:121,_RNCNvNtCsjevN86VL6yf_7dbpulse7metrics16ITERATIONS_TOTAL0B5_
FN:170,_RNCNvNtCsjevN86VL6yf_7dbpulse7metrics16PANICS_RECOVERED0B5_
FN:146,_RNCNvNtCsjevN86VL6yf_7dbpulse7metrics16TABLE_SIZE_BYTES0B5_
FN:99,_RNCNvNtCsjevN86VL6yf_7dbpulse7metrics18CONNECTIONS_ACTIVE0B5_
FN:76,_RNCNvNtCsjevN86VL6yf_7dbpulse7metrics18OPERATION_DURATION0B5_
FN:88,_RNCNvNtCsjevN86VL6yf_7dbpulse7metrics19CONNECTION_DURATION0B5_
FN:39,_RNCNvNtCsjevN86VL6yf_7dbpulse7metrics21TLS_CONNECTION_ERRORS0B5_
FN:27,_RNCNvNtCsjevN86VL6yf_7dbpulse7metrics22TLS_HANDSHAKE_DURATION0B5_
FN:13,_RNCNvNtCsjevN86VL6yf_7dbpulse7metrics5PULSE0B5_
FN:18,_RNCNvNtCsjevN86VL6yf_7dbpulse7metrics7RUNTIME0B5_
FN:51,_RNCNvNtCsjevN86VL6yf_7dbpulse7metrics8TLS_INFO0B5_
FN:64,_RNCNvNtCsjevN86VL6yf_7dbpulse7metrics9DB_ERRORS0B5_
FN:194,_RNvNtCsjevN86VL6yf_7dbpulse7metrics14encode_metrics
FNDA:0,_RNvNtCsdJikqdy9mw1_7dbpulse7metrics14encode_metrics
FNDA:0,_RNCNvNtCsdJikqdy9mw1_7dbpulse7metrics10TABLE_ROWS0B5_
FNDA:0,_RNCNvNtCsdJikqdy9mw1_7dbpulse7metrics11DB_READONLY0B5_
FNDA:0,_RNCNvNtCsdJikqdy9mw1_7dbpulse7metrics12LAST_SUCCESS0B5_
FNDA:0,_RNCNvNtCsdJikqdy9mw1_7dbpulse7metrics13ROWS_AFFECTED0B5_
FNDA:0,_RNCNvNtCsdJikqdy9mw1_7dbpulse7metrics14encode_metrics0B5_
FNDA:0,_RNCNvNtCsdJikqdy9mw1_7dbpulse7metrics16ITERATIONS_TOTAL0B5_
FNDA:0,_RNCNvNtCsdJikqdy9mw1_7dbpulse7metrics16PANICS_RECOVERED0B5_
FNDA:0,_RNCNvNtCsdJikqdy9mw1_7dbpulse7metrics16TABLE_SIZE_BYTES0B5_
FNDA:0,_RNCNvNtCsdJikqdy9mw1_7dbpulse7metrics18CONNECTIONS_ACTIVE0B5_
FNDA:0,_RNCNvNtCsdJikqdy9mw1_7dbpulse7metrics18OPERATION_DURATION0B5_
FNDA:0,_RNCNvNtCsdJikqdy9mw1_7dbpulse7metrics19CONNECTION_DURATION0B5_
FNDA:0,_RNCNvNtCsdJikqdy9mw1_7dbpulse7metrics21TLS_CONNECTION_ERRORS0B5_
FNDA:0,_RNCNvNtCsdJikqdy9mw1_7dbpulse7metrics22TLS_HANDSHAKE_DURATION0B5_
FNDA:0,_RNCNvNtCsdJikqdy9mw1_7dbpulse7metrics5PULSE0B5_
FNDA:0,_RNCNvNtCsdJikqdy9mw1_7dbpulse7metrics7RUNTIME0B5_
FNDA:0,_RNCNvNtCsdJikqdy9mw1_7dbpulse7metrics8TLS_INFO0B5_
FNDA:0,_RNCNvNtCsdJikqdy9mw1_7dbpulse7metrics9DB_ERRORS0B5_
FNDA:0,_RNCNvNtCsjevN86VL6yf_7dbpulse7metrics10TABLE_ROWS0B5_
FNDA:0,_RNCNvNtCsjevN86VL6yf_7dbpulse7metrics11DB_READONLY0B5_
FNDA:0,_RNCNvNtCsjevN86VL6yf_7dbpulse7metrics12LAST_SUCCESS0B5_
FNDA:0,_RNCNvNtCsjevN86VL6yf_7dbpulse7metrics13ROWS_AFFECTED0B5_
FNDA:0,_RNCNvNtCsjevN86VL6yf_7dbpulse7metrics14encode_metrics0B5_
FNDA:0,_RNCNvNtCsjevN86VL6yf_7dbpulse7metrics16ITERATIONS_TOTAL0B5_
FNDA:0,_RNCNvNtCsjevN86VL6yf_7dbpulse7metrics16PANICS_RECOVERED0B5_
FNDA:0,_RNCNvNtCsjevN86VL6yf_7dbpulse7metrics16TABLE_SIZE_BYTES0B5_
FNDA:0,_RNCNvNtCsjevN86VL6yf_7dbpulse7metrics18CONNECTIONS_ACTIVE0B5_
FNDA:0,_RNCNvNtCsjevN86VL6yf_7dbpulse7metrics18OPERATION_DURATION0B5_
FNDA:0,_RNCNvNtCsjevN86VL6yf_7dbpulse7metrics19CONNECTION_DURATION0B5_
FNDA:0,_RNCNvNtCsjevN86VL6yf_7dbpulse7metrics21TLS_CONNECTION_ERRORS0B5_
FNDA:0,_RNCNvNtCsjevN86VL6yf_7dbpulse7metrics22TLS_HANDSHAKE_DURATION0B5_
FNDA:0,_RNCNvNtCsjevN86VL6yf_7dbpulse7metrics5PULSE0B5_
FNDA:0,_RNCNvNtCsjevN86VL6yf_7dbpulse7metrics7RUNTIME0B5_
FNDA:0,_RNCNvNtCsjevN86VL6yf_7dbpulse7metrics8TLS_INFO0B5_
FNDA:0,_RNCNvNtCsjevN86VL6yf_7dbpulse7metrics9DB_ERRORS0B5_
FNDA:0,_RNvNtCsjevN86VL6yf_7dbpulse7metrics14encode_metrics
FNF:18
FNH:0
DA:13,0
DA:14,0
DA:15,0
DA:16,0
DA:18,0
DA:19,0
DA:20,0
DA:21,0
DA:23,0
DA:24,0
DA:27,0
DA:28,0
DA:29,0
DA:33,0
DA:34,0
DA:36,0
DA:37,0
DA:39,0
DA:40,0
DA:41,0
DA:45,0
DA:46,0
DA:48,0
DA:49,0
DA:51,0
DA:52,0
DA:53,0
DA:57,0
DA:58,0
DA:60,0
DA:61,0
DA:64,0
DA:65,0
DA:66,0
DA:70,0
DA:71,0
DA:73,0
DA:74,0
DA:76,0
DA:77,0
DA:78,0
DA:82,0
DA:83,0
DA:85,0
DA:86,0
DA:88,0
DA:89,0
DA:90,0
DA:94,0
DA:96,0
DA:97,0
DA:99,0
DA:100,0
DA:103,0
DA:105,0
DA:106,0
DA:109,0
DA:110,0
DA:111,0
DA:115,0
DA:116,0
DA:118,0
DA:119,0
DA:121,0
DA:122,0
DA:123,0
DA:127,0
DA:128,0
DA:130,0
DA:131,0
DA:133,0
DA:134,0
DA:135,0
DA:139,0
DA:140,0
DA:142,0
DA:143,0
DA:146,0
DA:147,0
DA:148,0
DA:152,0
DA:153,0
DA:155,0
DA:156,0
DA:158,0
DA:159,0
DA:160,0
DA:164,0
DA:165,0
DA:167,0
DA:168,0
DA:170,0
DA:171,0
DA:172,0
DA:176,0
DA:178,0
DA:179,0
DA:181,0
DA:182,0
DA:183,0
DA:187,0
DA:188,0
DA:190,0
DA:191,0
DA:194,0
DA:195,0
DA:196,0
DA:198,0
DA:199,0
DA:200,0
DA:202,0
DA:203,0
BRF:0
BRH:0
LF:113
LH:0
end_of_record
SF:/home/nbari/projects/rust/dbpulse/src/pulse.rs
FN:114,_RNvNtCsdJikqdy9mw1_7dbpulse5pulse12is_tls_errorB3_
FN:102,_RNvNtCsdJikqdy9mw1_7dbpulse5pulse15metrics_handler
FN:30,_RNvNtCsdJikqdy9mw1_7dbpulse5pulse5start
FN:125,_RNvNtCsdJikqdy9mw1_7dbpulse5pulse8run_loop
FN:73,_RNCNCNvNtCsdJikqdy9mw1_7dbpulse5pulse5start00B7_
FN:77,_RNCNCNvNtCsdJikqdy9mw1_7dbpulse5pulse5start0s_0B7_
FN:128,_RNCNCNvNtCsdJikqdy9mw1_7dbpulse5pulse8run_loop00B7_
FN:102,_RNCNvNtCsdJikqdy9mw1_7dbpulse5pulse15metrics_handler0B5_
FN:37,_RNCNvNtCsdJikqdy9mw1_7dbpulse5pulse5start0B5_
FN:125,_RNCNvNtCsdJikqdy9mw1_7dbpulse5pulse8run_loop0B5_
FN:73,_RNCNCNvNtCsjevN86VL6yf_7dbpulse5pulse5start00B7_
FN:77,_RNCNCNvNtCsjevN86VL6yf_7dbpulse5pulse5start0s_0B7_
FN:128,_RNCNCNvNtCsjevN86VL6yf_7dbpulse5pulse8run_loop00B7_
FN:102,_RNCNvNtCsjevN86VL6yf_7dbpulse5pulse15metrics_handler0B5_
FN:37,_RNCNvNtCsjevN86VL6yf_7dbpulse5pulse5start0B5_
FN:125,_RNCNvNtCsjevN86VL6yf_7dbpulse5pulse8run_loop0B5_
FN:114,_RNvNtCsjevN86VL6yf_7dbpulse5pulse12is_tls_errorB3_
FN:102,_RNvNtCsjevN86VL6yf_7dbpulse5pulse15metrics_handler
FN:30,_RNvNtCsjevN86VL6yf_7dbpulse5pulse5start
FN:125,_RNvNtCsjevN86VL6yf_7dbpulse5pulse8run_loop
FNDA:0,_RNvNtCsdJikqdy9mw1_7dbpulse5pulse12is_tls_errorB3_
FNDA:0,_RNvNtCsdJikqdy9mw1_7dbpulse5pulse15metrics_handler
FNDA:0,_RNvNtCsdJikqdy9mw1_7dbpulse5pulse5start
FNDA:0,_RNvNtCsdJikqdy9mw1_7dbpulse5pulse8run_loop
FNDA:0,_RNCNCNvNtCsdJikqdy9mw1_7dbpulse5pulse5start00B7_
FNDA:0,_RNCNCNvNtCsdJikqdy9mw1_7dbpulse5pulse5start0s_0B7_
FNDA:0,_RNCNCNvNtCsdJikqdy9mw1_7dbpulse5pulse8run_loop00B7_
FNDA:0,_RNCNvNtCsdJikqdy9mw1_7dbpulse5pulse15metrics_handler0B5_
FNDA:0,_RNCNvNtCsdJikqdy9mw1_7dbpulse5pulse5start0B5_
FNDA:0,_RNCNvNtCsdJikqdy9mw1_7dbpulse5pulse8run_loop0B5_
FNDA:0,_RNCNCNvNtCsjevN86VL6yf_7dbpulse5pulse5start00B7_
FNDA:0,_RNCNCNvNtCsjevN86VL6yf_7dbpulse5pulse5start0s_0B7_
FNDA:0,_RNCNCNvNtCsjevN86VL6yf_7dbpulse5pulse8run_loop00B7_
FNDA:0,_RNCNvNtCsjevN86VL6yf_7dbpulse5pulse15metrics_handler0B5_
FNDA:0,_RNCNvNtCsjevN86VL6yf_7dbpulse5pulse5start0B5_
FNDA:0,_RNCNvNtCsjevN86VL6yf_7dbpulse5pulse8run_loop0B5_
FNDA:0,_RNvNtCsjevN86VL6yf_7dbpulse5pulse12is_tls_errorB3_
FNDA:0,_RNvNtCsjevN86VL6yf_7dbpulse5pulse15metrics_handler
FNDA:0,_RNvNtCsjevN86VL6yf_7dbpulse5pulse5start
FNDA:0,_RNvNtCsjevN86VL6yf_7dbpulse5pulse8run_loop
FNF:10
FNH:0
DA:30,0
DA:31,0
DA:32,0
DA:33,0
DA:34,0
DA:35,0
DA:36,0
DA:37,0
DA:39,0
DA:42,0
DA:43,0
DA:45,0
DA:46,0
DA:47,0
DA:51,0
DA:52,0
DA:55,0
DA:56,0
DA:62,0
DA:63,0
DA:64,0
DA:70,0
DA:73,0
DA:76,0
DA:77,0
DA:78,0
DA:79,0
DA:81,0
DA:82,0
DA:83,0
DA:85,0
DA:86,0
DA:88,0
DA:89,0
DA:91,0
DA:92,0
DA:93,0
DA:99,0
DA:100,0
DA:102,0
DA:103,0
DA:104,0
DA:105,0
DA:106,0
DA:107,0
DA:110,0
DA:114,0
DA:115,0
DA:117,0
DA:118,0
DA:119,0
DA:120,0
DA:121,0
DA:122,0
DA:123,0
DA:125,0
DA:128,0
DA:129,0
DA:130,0
DA:131,0
DA:134,0
DA:136,0
DA:138,0
DA:139,0
DA:140,0
DA:141,0
DA:142,0
DA:143,0
DA:144,0
DA:147,0
DA:148,0
DA:149,0
DA:152,0
DA:153,0
DA:154,0
DA:157,0
DA:158,0
DA:159,0
DA:160,0
DA:161,0
DA:162,0
DA:163,0
DA:166,0
DA:167,0
DA:168,0
DA:171,0
DA:172,0
DA:173,0
DA:174,0
DA:175,0
DA:176,0
DA:177,0
DA:178,0
DA:179,0
DA:180,0
DA:181,0
DA:182,0
DA:184,0
DA:185,0
DA:186,0
DA:189,0
DA:190,0
DA:191,0
DA:194,0
DA:195,0
DA:196,0
DA:198,0
DA:199,0
DA:200,0
DA:201,0
DA:202,0
DA:204,0
DA:205,0
DA:206,0
DA:208,0
DA:211,0
DA:214,0
DA:215,0
DA:216,0
DA:217,0
DA:218,0
DA:222,0
DA:223,0
DA:224,0
DA:225,0
DA:228,0
DA:229,0
DA:230,0
DA:233,0
DA:234,0
DA:235,0
DA:238,0
DA:239,0
DA:240,0
DA:241,0
DA:242,0
DA:245,0
DA:246,0
DA:247,0
DA:250,0
DA:251,0
DA:252,0
DA:253,0
DA:254,0
DA:255,0
DA:256,0
DA:257,0
DA:258,0
DA:259,0
DA:260,0
DA:261,0
DA:263,0
DA:264,0
DA:265,0
DA:268,0
DA:269,0
DA:270,0
DA:273,0
DA:274,0
DA:275,0
DA:276,0
DA:278,0
DA:279,0
DA:280,0
DA:281,0
DA:283,0
DA:284,0
DA:285,0
DA:287,0
DA:290,0
DA:293,0
DA:294,0
DA:295,0
DA:296,0
DA:297,0
DA:301,0
DA:302,0
DA:303,0
DA:307,0
DA:309,0
DA:310,0
DA:311,0
DA:313,0
DA:314,0
DA:315,0
DA:318,0
DA:319,0
DA:320,0
DA:321,0
DA:322,0
DA:323,0
DA:324,0
DA:325,0
DA:326,0
DA:329,0
DA:330,0
DA:331,0
DA:332,0
DA:334,0
DA:335,0
BRF:0
BRH:0
LF:206
LH:0
end_of_record
SF:/home/nbari/projects/rust/dbpulse/src/queries/mysql.rs
FN:29,_RNvNtNtCsdJikqdy9mw1_7dbpulse7queries5mysql18test_rw_with_table
FN:370,_RNvNtNtCsdJikqdy9mw1_7dbpulse7queries5mysql20extract_tls_metadata
FN:20,_RNvNtNtCsdJikqdy9mw1_7dbpulse7queries5mysql7test_rw
FN:35,_RNCNvNtNtCsdJikqdy9mw1_7dbpulse7queries5mysql18test_rw_with_table0B7_
FN:370,_RNCNvNtNtCsdJikqdy9mw1_7dbpulse7queries5mysql20extract_tls_metadata0B7_
FN:25,_RNCNvNtNtCsdJikqdy9mw1_7dbpulse7queries5mysql7test_rw0B7_
FN:29,_RNvNtNtCsjevN86VL6yf_7dbpulse7queries5mysql18test_rw_with_table
FN:370,_RNvNtNtCsjevN86VL6yf_7dbpulse7queries5mysql20extract_tls_metadata
FN:20,_RNvNtNtCsjevN86VL6yf_7dbpulse7queries5mysql7test_rw
FN:35,_RNCNvNtNtCsjevN86VL6yf_7dbpulse7queries5mysql18test_rw_with_table0B7_
FN:370,_RNCNvNtNtCsjevN86VL6yf_7dbpulse7queries5mysql20extract_tls_metadata0B7_
FN:25,_RNCNvNtNtCsjevN86VL6yf_7dbpulse7queries5mysql7test_rw0B7_
FNDA:0,_RNvNtNtCsdJikqdy9mw1_7dbpulse7queries5mysql18test_rw_with_table
FNDA:0,_RNvNtNtCsdJikqdy9mw1_7dbpulse7queries5mysql20extract_tls_metadata
FNDA:0,_RNvNtNtCsdJikqdy9mw1_7dbpulse7queries5mysql7test_rw
FNDA:0,_RNCNvNtNtCsdJikqdy9mw1_7dbpulse7queries5mysql18test_rw_with_table0B7_
FNDA:0,_RNCNvNtNtCsdJikqdy9mw1_7dbpulse7queries5mysql20extract_tls_metadata0B7_
FNDA:0,_RNCNvNtNtCsdJikqdy9mw1_7dbpulse7queries5mysql7test_rw0B7_
FNDA:0,_RNvNtNtCsjevN86VL6yf_7dbpulse7queries5mysql18test_rw_with_table
FNDA:0,_RNvNtNtCsjevN86VL6yf_7dbpulse7queries5mysql20extract_tls_metadata
FNDA:0,_RNvNtNtCsjevN86VL6yf_7dbpulse7queries5mysql7test_rw
FNDA:0,_RNCNvNtNtCsjevN86VL6yf_7dbpulse7queries5mysql18test_rw_with_table0B7_
FNDA:0,_RNCNvNtNtCsjevN86VL6yf_7dbpulse7queries5mysql20extract_tls_metadata0B7_
FNDA:0,_RNCNvNtNtCsjevN86VL6yf_7dbpulse7queries5mysql7test_rw0B7_
FNF:6
FNH:0
DA:20,0
DA:21,0
DA:22,0
DA:23,0
DA:24,0
DA:25,0
DA:26,0
DA:27,0
DA:29,0
DA:30,0
DA:31,0
DA:32,0
DA:33,0
DA:34,0
DA:35,0
DA:36,0
DA:37,0
DA:38,0
DA:39,0
DA:41,0
DA:42,0
DA:43,0
DA:44,0
DA:45,0
DA:48,0
DA:49,0
DA:50,0
DA:52,0
DA:53,0
DA:54,0
DA:55,0
DA:56,0
DA:59,0
DA:60,0
DA:61,0
DA:62,0
DA:63,0
DA:68,0
DA:69,0
DA:70,0
DA:73,0
DA:74,0
DA:76,0
DA:77,0
DA:78,0
DA:79,0
DA:80,0
DA:81,0
DA:82,0
DA:84,0
DA:85,0
DA:86,0
DA:87,0
DA:88,0
DA:89,0
DA:91,0
DA:92,0
DA:93,0
DA:94,0
DA:95,0
DA:96,0
DA:97,0
DA:99,0
DA:100,0
DA:101,0
DA:102,0
DA:103,0
DA:104,0
DA:105,0
DA:106,0
DA:107,0
DA:108,0
DA:109,0
DA:110,0
DA:111,0
DA:112,0
DA:114,0
DA:115,0
DA:116,0
DA:117,0
DA:118,0
DA:119,0
DA:121,0
DA:122,0
DA:126,0
DA:127,0
DA:133,0
DA:134,0
DA:135,0
DA:136,0
DA:139,0
DA:140,0
DA:141,0
DA:142,0
DA:144,0
DA:145,0
DA:146,0
DA:148,0
DA:150,0
DA:151,0
DA:152,0
DA:153,0
DA:154,0
DA:155,0
DA:156,0
DA:157,0
DA:160,0
DA:161,0
DA:162,0
DA:163,0
DA:164,0
DA:165,0
DA:166,0
DA:167,0
DA:168,0
DA:169,0
DA:170,0
DA:171,0
DA:175,0
DA:176,0
DA:177,0
DA:178,0
DA:179,0
DA:182,0
DA:183,0
DA:186,0
DA:187,0
DA:188,0
DA:189,0
DA:190,0
DA:191,0
DA:192,0
DA:195,0
DA:196,0
DA:197,0
DA:198,0
DA:199,0
DA:200,0
DA:201,0
DA:202,0
DA:203,0
DA:204,0
DA:205,0
DA:206,0
DA:207,0
DA:210,0
DA:211,0
DA:212,0
DA:213,0
DA:214,0
DA:215,0
DA:218,0
DA:219,0
DA:220,0
DA:221,0
DA:222,0
DA:223,0
DA:224,0
DA:225,0
DA:226,0
DA:229,0
DA:230,0
DA:231,0
DA:232,0
DA:233,0
DA:234,0
DA:235,0
DA:236,0
DA:237,0
DA:238,0
DA:242,0
DA:244,0
DA:245,0
DA:248,0
DA:249,0
DA:252,0
DA:253,0
DA:254,0
DA:255,0
DA:258,0
DA:259,0
DA:260,0
DA:261,0
DA:262,0
DA:263,0
DA:266,0
DA:267,0
DA:268,0
DA:269,0
DA:270,0
DA:272,0
DA:273,0
DA:274,0
DA:275,0
DA:276,0
DA:277,0
DA:280,0
DA:283,0
DA:284,0
DA:285,0
DA:286,0
DA:287,0
DA:289,0
DA:290,0
DA:291,0
DA:292,0
DA:293,0
DA:294,0
DA:295,0
DA:300,0
DA:301,0
DA:302,0
DA:303,0
DA:304,0
DA:305,0
DA:306,0
DA:307,0
DA:308,0
DA:309,0
DA:310,0
DA:311,0
DA:312,0
DA:313,0
DA:314,0
DA:319,0
DA:321,0
DA:322,0
DA:323,0
DA:324,0
DA:327,0
DA:328,0
DA:329,0
DA:332,0
DA:333,0
DA:334,0
DA:335,0
DA:336,0
DA:337,0
DA:340,0
DA:341,0
DA:342,0
DA:343,0
DA:344,0
DA:345,0
DA:346,0
DA:347,0
DA:348,0
DA:349,0
DA:352,0
DA:353,0
DA:355,0
DA:359,0
DA:360,0
DA:361,0
DA:364,0
DA:365,0
DA:367,0
DA:370,0
DA:372,0
DA:373,0
DA:374,0
DA:376,0
DA:377,0
DA:379,0
DA:380,0
DA:381,0
DA:383,0
DA:384,0
DA:385,0
DA:386,0
DA:387,0
DA:389,0
DA:390,0
DA:391,0
DA:392,0
DA:394,0
DA:398,0
DA:399,0
DA:400,0
DA:401,0
DA:402,0
DA:403,0
BRF:0
BRH:0
LF:285
LH:0
end_of_record
SF:/home/nbari/projects/rust/dbpulse/src/queries/postgres.rs
FN:412,_RNCNCNvNtNtCsdJikqdy9mw1_7dbpulse7queries8postgres20extract_tls_metadata00B9_
FN:413,_RNCNCNvNtNtCsdJikqdy9mw1_7dbpulse7queries8postgres20extract_tls_metadata0s_0B9_
FN:35,_RNCNvNtNtCsdJikqdy9mw1_7dbpulse7queries8postgres18test_rw_with_table0B7_
FN:405,_RNCNvNtNtCsdJikqdy9mw1_7dbpulse7queries8postgres20extract_tls_metadata0B7_
FN:25,_RNCNvNtNtCsdJikqdy9mw1_7dbpulse7queries8postgres7test_rw0B7_
FN:29,_RNvNtNtCsdJikqdy9mw1_7dbpulse7queries8postgres18test_rw_with_table
FN:405,_RNvNtNtCsdJikqdy9mw1_7dbpulse7queries8postgres20extract_tls_metadata
FN:20,_RNvNtNtCsdJikqdy9mw1_7dbpulse7queries8postgres7test_rw
FN:29,_RNvNtNtCsjevN86VL6yf_7dbpulse7queries8postgres18test_rw_with_table
FN:405,_RNvNtNtCsjevN86VL6yf_7dbpulse7queries8postgres20extract_tls_metadata
FN:20,_RNvNtNtCsjevN86VL6yf_7dbpulse7queries8postgres7test_rw
FN:412,_RNCNCNvNtNtCsjevN86VL6yf_7dbpulse7queries8postgres20extract_tls_metadata00B9_
FN:413,_RNCNCNvNtNtCsjevN86VL6yf_7dbpulse7queries8postgres20extract_tls_metadata0s_0B9_
FN:35,_RNCNvNtNtCsjevN86VL6yf_7dbpulse7queries8postgres18test_rw_with_table0B7_
FN:405,_RNCNvNtNtCsjevN86VL6yf_7dbpulse7queries8postgres20extract_tls_metadata0B7_
FN:25,_RNCNvNtNtCsjevN86VL6yf_7dbpulse7queries8postgres7test_rw0B7_
FNDA:0,_RNCNCNvNtNtCsdJikqdy9mw1_7dbpulse7queries8postgres20extract_tls_metadata00B9_
FNDA:0,_RNCNCNvNtNtCsdJikqdy9mw1_7dbpulse7queries8postgres20extract_tls_metadata0s_0B9_
FNDA:0,_RNCNvNtNtCsdJikqdy9mw1_7dbpulse7queries8postgres18test_rw_with_table0B7_
FNDA:0,_RNCNvNtNtCsdJikqdy9mw1_7dbpulse7queries8postgres20extract_tls_metadata0B7_
FNDA:0,_RNCNvNtNtCsdJikqdy9mw1_7dbpulse7queries8postgres7test_rw0B7_
FNDA:0,_RNvNtNtCsdJikqdy9mw1_7dbpulse7queries8postgres18test_rw_with_table
FNDA:0,_RNvNtNtCsdJikqdy9mw1_7dbpulse7queries8postgres20extract_tls_metadata
FNDA:0,_RNvNtNtCsdJikqdy9mw1_7dbpulse7queries8postgres7test_rw
FNDA:0,_RNvNtNtCsjevN86VL6yf_7dbpulse7queries8postgres18test_rw_with_table
FNDA:0,_RNvNtNtCsjevN86VL6yf_7dbpulse7queries8postgres20extract_tls_metadata
FNDA:0,_RNvNtNtCsjevN86VL6yf_7dbpulse7queries8postgres7test_rw
FNDA:0,_RNCNCNvNtNtCsjevN86VL6yf_7dbpulse7queries8postgres20extract_tls_metadata00B9_
FNDA:0,_RNCNCNvNtNtCsjevN86VL6yf_7dbpulse7queries8postgres20extract_tls_metadata0s_0B9_
FNDA:0,_RNCNvNtNtCsjevN86VL6yf_7dbpulse7queries8postgres18test_rw_with_table0B7_
FNDA:0,_RNCNvNtNtCsjevN86VL6yf_7dbpulse7queries8postgres20extract_tls_metadata0B7_
FNDA:0,_RNCNvNtNtCsjevN86VL6yf_7dbpulse7queries8postgres7test_rw0B7_
FNF:8
FNH:0
DA:20,0
DA:21,0
DA:22,0
DA:23,0
DA:24,0
DA:25,0
DA:26,0
DA:27,0
DA:29,0
DA:30,0
DA:31,0
DA:32,0
DA:33,0
DA:34,0
DA:35,0
DA:36,0
DA:37,0
DA:38,0
DA:39,0
DA:41,0
DA:42,0
DA:43,0
DA:44,0
DA:45,0
DA:48,0
DA:49,0
DA:50,0
DA:52,0
DA:53,0
DA:54,0
DA:55,0
DA:56,0
DA:59,0
DA:60,0
DA:61,0
DA:62,0
DA:63,0
DA:68,0
DA:69,0
DA:70,0
DA:73,0
DA:74,0
DA:76,0
DA:77,0
DA:78,0
DA:79,0
DA:80,0
DA:81,0
DA:82,0
DA:84,0
DA:85,0
DA:86,0
DA:87,0
DA:88,0
DA:89,0
DA:91,0
DA:92,0
DA:93,0
DA:94,0
DA:95,0
DA:96,0
DA:97,0
DA:99,0
DA:100,0
DA:101,0
DA:102,0
DA:103,0
DA:104,0
DA:105,0
DA:106,0
DA:107,0
DA:108,0
DA:109,0
DA:110,0
DA:111,0
DA:112,0
DA:114,0
DA:115,0
DA:116,0
DA:117,0
DA:118,0
DA:119,0
DA:121,0
DA:122,0
DA:126,0
DA:127,0
DA:133,0
DA:134,0
DA:135,0
DA:136,0
DA:139,0
DA:140,0
DA:141,0
DA:144,0
DA:145,0
DA:146,0
DA:148,0
DA:150,0
DA:151,0
DA:152,0
DA:153,0
DA:154,0
DA:155,0
DA:156,0
DA:157,0
DA:160,0
DA:161,0
DA:162,0
DA:165,0
DA:166,0
DA:167,0
DA:168,0
DA:169,0
DA:172,0
DA:173,0
DA:174,0
DA:176,0
DA:178,0
DA:181,0
DA:182,0
DA:183,0
DA:184,0
DA:185,0
DA:186,0
DA:187,0
DA:188,0
DA:189,0
DA:190,0
DA:194,0
DA:195,0
DA:197,0
DA:198,0
DA:199,0
DA:201,0
DA:202,0
DA:203,0
DA:205,0
DA:206,0
DA:208,0
DA:209,0
DA:210,0
DA:211,0
DA:214,0
DA:215,0
DA:218,0
DA:221,0
DA:222,0
DA:225,0
DA:226,0
DA:227,0
DA:228,0
DA:229,0
DA:230,0
DA:231,0
DA:234,0
DA:235,0
DA:236,0
DA:237,0
DA:238,0
DA:239,0
DA:240,0
DA:241,0
DA:242,0
DA:243,0
DA:244,0
DA:245,0
DA:246,0
DA:249,0
DA:250,0
DA:251,0
DA:252,0
DA:253,0
DA:254,0
DA:257,0
DA:258,0
DA:259,0
DA:260,0
DA:261,0
DA:262,0
DA:263,0
DA:264,0
DA:267,0
DA:268,0
DA:269,0
DA:270,0
DA:271,0
DA:272,0
DA:273,0
DA:274,0
DA:275,0
DA:276,0
DA:280,0
DA:282,0
DA:283,0
DA:286,0
DA:287,0
DA:290,0
DA:291,0
DA:292,0
DA:293,0
DA:296,0
DA:297,0
DA:298,0
DA:299,0
DA:300,0
DA:301,0
DA:304,0
DA:305,0
DA:306,0
DA:307,0
DA:308,0
DA:310,0
DA:311,0
DA:312,0
DA:313,0
DA:314,0
DA:315,0
DA:318,0
DA:321,0
DA:322,0
DA:323,0
DA:324,0
DA:325,0
DA:327,0
DA:328,0
DA:329,0
DA:330,0
DA:331,0
DA:332,0
DA:333,0
DA:338,0
DA:339,0
DA:342,0
DA:343,0
DA:344,0
DA:345,0
DA:346,0
DA:347,0
DA:348,0
DA:349,0
DA:350,0
DA:355,0
DA:357,0
DA:358,0
DA:359,0
DA:360,0
DA:363,0
DA:364,0
DA:365,0
DA:368,0
DA:369,0
DA:370,0
DA:371,0
DA:372,0
DA:373,0
DA:376,0
DA:377,0
DA:378,0
DA:379,0
DA:380,0
DA:381,0
DA:382,0
DA:383,0
DA:384,0
DA:387,0
DA:388,0
DA:390,0
DA:394,0
DA:395,0
DA:396,0
DA:399,0
DA:400,0
DA:402,0
DA:405,0
DA:407,0
DA:408,0
DA:409,0
DA:411,0
DA:412,0
DA:413,0
DA:414,0
DA:415,0
DA:417,0
DA:418,0
DA:419,0
DA:420,0
DA:421,0
DA:422,0
DA:424,0
BRF:0
BRH:0
LF:292
LH:0
end_of_record
SF:/home/nbari/projects/rust/dbpulse/src/tls.rs
FN:43,_RNvMs_NtCsdJikqdy9mw1_7dbpulse3tlsNtB4_7TlsMode10is_enabled
FN:30,_RNvXNtCsdJikqdy9mw1_7dbpulse3tlsNtB2_7TlsModeNtNtNtCs4Vq2ZLagKfv_4core3str6traits7FromStr8from_str
FN:43,_RNvMs_NtCsjevN86VL6yf_7dbpulse3tlsNtB4_7TlsMode10is_enabled
FN:30,_RNvXNtCsjevN86VL6yf_7dbpulse3tlsNtB2_7TlsModeNtNtNtCs4Vq2ZLagKfv_4core3str6traits7FromStr8from_str
FN:68,_RNvNtNtCsjevN86VL6yf_7dbpulse3tls5testss_22test_tls_mode_from_str
FN:81,_RNvNtNtCsjevN86VL6yf_7dbpulse3tls5testss_24test_tls_mode_is_enabled
FNDA:0,_RNvMs_NtCsdJikqdy9mw1_7dbpulse3tlsNtB4_7TlsMode10is_enabled
FNDA:0,_RNvXNtCsdJikqdy9mw1_7dbpulse3tlsNtB2_7TlsModeNtNtNtCs4Vq2ZLagKfv_4core3str6traits7FromStr8from_str
FNDA:5,_RNvMs_NtCsjevN86VL6yf_7dbpulse3tlsNtB4_7TlsMode10is_enabled
FNDA:7,_RNvXNtCsjevN86VL6yf_7dbpulse3tlsNtB2_7TlsModeNtNtNtCs4Vq2ZLagKfv_4core3str6traits7FromStr8from_str
FNDA:1,_RNvNtNtCsjevN86VL6yf_7dbpulse3tls5testss_22test_tls_mode_from_str
FNDA:1,_RNvNtNtCsjevN86VL6yf_7dbpulse3tls5testss_24test_tls_mode_is_enabled
FNF:4
FNH:4
DA:30,7
DA:31,7
DA:32,7
DA:33,5
DA:34,3
DA:35,2
DA:36,1
DA:38,7
DA:43,5
DA:44,5
DA:45,5
DA:68,1
DA:69,1
DA:70,1
DA:71,1
DA:72,1
DA:73,1
DA:76,1
DA:77,1
DA:78,1
DA:81,1
DA:82,1
DA:83,1
DA:84,1
DA:85,1
DA:86,1
BRF:0
BRH:0
LF:26
LH:26
end_of_record